target datalayout = "e-m:e-p270:32:32-p271:32:32-p272:64:64-i64:64-i128:128-f80:128-n8:16:32:64-S128"
target triple = "x86_64-pc-linux-gnu"

%struct.OnigCalloutArgsStruct = type { i32, i32, i32, ptr, ptr, ptr, ptr, ptr, ptr, i64, ptr, ptr, ptr, ptr, ptr }
%union.OnigValue = type { %struct.anon.0 }
%struct.anon.0 = type { ptr, ptr }
%struct.CalloutListEntry = type { i32, i32, i32, i32, ptr, ptr, i32, ptr, ptr, %union.anon }
%union.anon = type { %struct.anon.2 }
%struct.anon.2 = type { i32, i32, [4 x i32], [4 x %union.OnigValue] }

@OutFp = internal global ptr null, align 8
@.str.2 = private unnamed_addr constant [4 x i8] c"#%d\00", align 1
@.str.3 = private unnamed_addr constant [48 x i8] c"ONIG-MONITOR: %-4s %s at: %d [%d - %d] len: %d\0A\00", align 1
@.str.4 = private unnamed_addr constant [3 x i8] c"=>\00", align 1
@.str.5 = private unnamed_addr constant [3 x i8] c"<=\00", align 1

; Function Attrs: nounwind uwtable
define dso_local ptr @onig_get_regex_by_callout_args(ptr noundef %0) #0 {
  %2 = alloca ptr, align 8
  store ptr %0, ptr %2, align 8, !tbaa !45
  %3 = load ptr, ptr %2, align 8, !tbaa !45
  %4 = getelementptr inbounds nuw %struct.OnigCalloutArgsStruct, ptr %3, i32 0, i32 3
  %5 = load ptr, ptr %4, align 8, !tbaa !61
  ret ptr %5
}

; Function Attrs: nounwind uwtable
define dso_local ptr @onig_get_string_end_by_callout_args(ptr noundef %0) #0 {
  %2 = alloca ptr, align 8
  store ptr %0, ptr %2, align 8, !tbaa !45
  %3 = load ptr, ptr %2, align 8, !tbaa !45
  %4 = getelementptr inbounds nuw %struct.OnigCalloutArgsStruct, ptr %3, i32 0, i32 5
  %5 = load ptr, ptr %4, align 8, !tbaa !163
  ret ptr %5
}

; Function Attrs: nounwind uwtable
define dso_local ptr @onig_get_string_by_callout_args(ptr noundef %0) #0 {
  %2 = alloca ptr, align 8
  store ptr %0, ptr %2, align 8, !tbaa !45
  %3 = load ptr, ptr %2, align 8, !tbaa !45
  %4 = getelementptr inbounds nuw %struct.OnigCalloutArgsStruct, ptr %3, i32 0, i32 4
  %5 = load ptr, ptr %4, align 8, !tbaa !162
  ret ptr %5
}

; Function Attrs: nounwind uwtable
define dso_local ptr @onig_get_current_by_callout_args(ptr noundef %0) #0 {
  %2 = alloca ptr, align 8
  store ptr %0, ptr %2, align 8, !tbaa !45
  %3 = load ptr, ptr %2, align 8, !tbaa !45
  %4 = getelementptr inbounds nuw %struct.OnigCalloutArgsStruct, ptr %3, i32 0, i32 8
  %5 = load ptr, ptr %4, align 8, !tbaa !166
  ret ptr %5
}

; Function Attrs: nounwind uwtable
define dso_local ptr @onig_get_right_range_by_callout_args(ptr noundef %0) #0 {
  %2 = alloca ptr, align 8
  store ptr %0, ptr %2, align 8, !tbaa !45
  %3 = load ptr, ptr %2, align 8, !tbaa !45
  %4 = getelementptr inbounds nuw %struct.OnigCalloutArgsStruct, ptr %3, i32 0, i32 7
  %5 = load ptr, ptr %4, align 8, !tbaa !165
  ret ptr %5
}

; Function Attrs: nounwind uwtable
define dso_local ptr @onig_get_start_by_callout_args(ptr noundef %0) #0 {
  %2 = alloca ptr, align 8
  store ptr %0, ptr %2, align 8, !tbaa !45
  %3 = load ptr, ptr %2, align 8, !tbaa !45
  %4 = getelementptr inbounds nuw %struct.OnigCalloutArgsStruct, ptr %3, i32 0, i32 6
  %5 = load ptr, ptr %4, align 8, !tbaa !164
  ret ptr %5
}

; Function Attrs: nounwind uwtable
define dso_local i32 @onig_get_callout_num_by_callout_args(ptr noundef %0) #0 {
  %2 = alloca ptr, align 8
  store ptr %0, ptr %2, align 8, !tbaa !45
  %3 = load ptr, ptr %2, align 8, !tbaa !45
  %4 = getelementptr inbounds nuw %struct.OnigCalloutArgsStruct, ptr %3, i32 0, i32 2
  %5 = load i32, ptr %4, align 8, !tbaa !54
  ret i32 %5
}

; Function Attrs: nounwind uwtable
define dso_local i32 @onig_get_callout_in_by_callout_args(ptr noundef %0) #0 {
  %2 = alloca ptr, align 8
  store ptr %0, ptr %2, align 8, !tbaa !45
  %3 = load ptr, ptr %2, align 8, !tbaa !45
  %4 = getelementptr inbounds nuw %struct.OnigCalloutArgsStruct, ptr %3, i32 0, i32 0
  %5 = load i32, ptr %4, align 8, !tbaa !160
  ret i32 %5
}

; Function Attrs: nounwind uwtable
define dso_local i32 @onig_get_arg_by_callout_args(ptr noundef %0, i32 noundef %1, ptr noundef %2, ptr noundef %3) #0 {
  %5 = alloca i32, align 4
  %6 = alloca ptr, align 8
  %7 = alloca i32, align 4
  %8 = alloca ptr, align 8
  %9 = alloca ptr, align 8
  %10 = alloca i32, align 4
  %11 = alloca ptr, align 8
  %12 = alloca i32, align 4
  store ptr %0, ptr %6, align 8, !tbaa !45
  store i32 %1, ptr %7, align 4, !tbaa !9
  store ptr %2, ptr %8, align 8, !tbaa !17
  store ptr %3, ptr %9, align 8, !tbaa !17
  call void @llvm.lifetime.start.p0(i64 4, ptr %10) #9
  call void @llvm.lifetime.start.p0(i64 8, ptr %11) #9
  %13 = load ptr, ptr %6, align 8, !tbaa !45
  %14 = getelementptr inbounds nuw %struct.OnigCalloutArgsStruct, ptr %13, i32 0, i32 2
  %15 = load i32, ptr %14, align 8, !tbaa !54
  store i32 %15, ptr %10, align 4, !tbaa !9
  %16 = load ptr, ptr %6, align 8, !tbaa !45
  %17 = getelementptr inbounds nuw %struct.OnigCalloutArgsStruct, ptr %16, i32 0, i32 3
  %18 = load ptr, ptr %17, align 8, !tbaa !61
  %19 = load i32, ptr %10, align 4, !tbaa !9
  %20 = call ptr @onig_reg_callout_list_at(ptr noundef %18, i32 noundef %19)
  store ptr %20, ptr %11, align 8, !tbaa !17
  %21 = load ptr, ptr %11, align 8, !tbaa !17
  %22 = icmp eq ptr %21, null
  br i1 %22, label %23, label %24

23:                                               ; preds = %4
  store i32 -30, ptr %5, align 4
  store i32 1, ptr %12, align 4
  br label %54

24:                                               ; preds = %4
  %25 = load ptr, ptr %11, align 8, !tbaa !17
  %26 = getelementptr inbounds nuw %struct.CalloutListEntry, ptr %25, i32 0, i32 1
  %27 = load i32, ptr %26, align 4, !tbaa !214
  %28 = icmp eq i32 %27, 1
  br i1 %28, label %29, label %53

29:                                               ; preds = %24
  %30 = load ptr, ptr %8, align 8, !tbaa !17
  %31 = icmp ne ptr %30, null
  br i1 %31, label %32, label %41

32:                                               ; preds = %29
  %33 = load ptr, ptr %11, align 8, !tbaa !17
  %34 = getelementptr inbounds nuw %struct.CalloutListEntry, ptr %33, i32 0, i32 9
  %35 = getelementptr inbounds nuw %struct.anon.2, ptr %34, i32 0, i32 2
  %36 = load i32, ptr %7, align 4, !tbaa !9
  %37 = sext i32 %36 to i64
  %38 = getelementptr inbounds [4 x i32], ptr %35, i64 0, i64 %37
  %39 = load i32, ptr %38, align 4, !tbaa !59
  %40 = load ptr, ptr %8, align 8, !tbaa !17
  store i32 %39, ptr %40, align 4, !tbaa !9
  br label %41

41:                                               ; preds = %32, %29
  %42 = load ptr, ptr %9, align 8, !tbaa !17
  %43 = icmp ne ptr %42, null
  br i1 %43, label %44, label %52

44:                                               ; preds = %41
  %45 = load ptr, ptr %9, align 8, !tbaa !17
  %46 = load ptr, ptr %11, align 8, !tbaa !17
  %47 = getelementptr inbounds nuw %struct.CalloutListEntry, ptr %46, i32 0, i32 9
  %48 = getelementptr inbounds nuw %struct.anon.2, ptr %47, i32 0, i32 3
  %49 = load i32, ptr %7, align 4, !tbaa !9
  %50 = sext i32 %49 to i64
  %51 = getelementptr inbounds [4 x %union.OnigValue], ptr %48, i64 0, i64 %50
  call void @llvm.memcpy.p0.p0.i64(ptr align 8 %45, ptr align 8 %51, i64 16, i1 false), !tbaa.struct !58
  br label %52

52:                                               ; preds = %44, %41
  store i32 0, ptr %5, align 4
  store i32 1, ptr %12, align 4
  br label %54

53:                                               ; preds = %24
  store i32 -30, ptr %5, align 4
  store i32 1, ptr %12, align 4
  br label %54

54:                                               ; preds = %53, %52, %23
  call void @llvm.lifetime.end.p0(i64 8, ptr %11) #9
  call void @llvm.lifetime.end.p0(i64 4, ptr %10) #9
  %55 = load i32, ptr %5, align 4
  ret i32 %55
}

; Function Attrs: nounwind uwtable
define internal i32 @onig_builtin_monitor(ptr noundef %0, ptr noundef %1) #0 {
  %3 = alloca i32, align 4
  %4 = alloca ptr, align 8
  %5 = alloca ptr, align 8
  %6 = alloca i32, align 4
  %7 = alloca i32, align 4
  %8 = alloca i64, align 8
  %9 = alloca ptr, align 8
  %10 = alloca ptr, align 8
  %11 = alloca ptr, align 8
  %12 = alloca ptr, align 8
  %13 = alloca ptr, align 8
  %14 = alloca ptr, align 8
  %15 = alloca ptr, align 8
  %16 = alloca ptr, align 8
  %17 = alloca i32, align 4
  %18 = alloca i32, align 4
  %19 = alloca %union.OnigValue, align 8
  %20 = alloca [20 x i8], align 16
  %21 = alloca ptr, align 8
  %22 = alloca i32, align 4
  %23 = alloca i32, align 4
  store ptr %0, ptr %4, align 8, !tbaa !45
  store ptr %1, ptr %5, align 8, !tbaa !17
  call void @llvm.lifetime.start.p0(i64 4, ptr %6) #9
  call void @llvm.lifetime.start.p0(i64 4, ptr %7) #9
  call void @llvm.lifetime.start.p0(i64 8, ptr %8) #9
  call void @llvm.lifetime.start.p0(i64 8, ptr %9) #9
  call void @llvm.lifetime.start.p0(i64 8, ptr %10) #9
  call void @llvm.lifetime.start.p0(i64 8, ptr %11) #9
  call void @llvm.lifetime.start.p0(i64 8, ptr %12) #9
  call void @llvm.lifetime.start.p0(i64 8, ptr %13) #9
  call void @llvm.lifetime.start.p0(i64 8, ptr %14) #9
  call void @llvm.lifetime.start.p0(i64 8, ptr %15) #9
  call void @llvm.lifetime.start.p0(i64 8, ptr %16) #9
  call void @llvm.lifetime.start.p0(i64 4, ptr %17) #9
  call void @llvm.lifetime.start.p0(i64 4, ptr %18) #9
  call void @llvm.lifetime.start.p0(i64 16, ptr %19) #9
  call void @llvm.lifetime.start.p0(i64 20, ptr %20) #9
  call void @llvm.lifetime.start.p0(i64 8, ptr %21) #9
  %24 = load ptr, ptr @OutFp, align 8, !tbaa !215
  store ptr %24, ptr %21, align 8, !tbaa !215
  %25 = load ptr, ptr %4, align 8, !tbaa !45
  %26 = call i32 @onig_get_arg_by_callout_args(ptr noundef %25, i32 noundef 0, ptr noundef %18, ptr noundef %19)
  store i32 %26, ptr %6, align 4, !tbaa !9
  %27 = load i32, ptr %6, align 4, !tbaa !9
  %28 = icmp ne i32 %27, 0
  br i1 %28, label %29, label %31

29:                                               ; preds = %2
  %30 = load i32, ptr %6, align 4, !tbaa !9
  store i32 %30, ptr %3, align 4
  store i32 1, ptr %22, align 4
  br label %139

31:                                               ; preds = %2
  %32 = load ptr, ptr %4, align 8, !tbaa !45
  %33 = call i32 @onig_get_callout_in_by_callout_args(ptr noundef %32)
  store i32 %33, ptr %17, align 4, !tbaa !9
  %34 = load i32, ptr %17, align 4, !tbaa !9
  %35 = icmp eq i32 %34, 1
  br i1 %35, label %36, label %41

36:                                               ; preds = %31
  %37 = load i32, ptr %19, align 8, !tbaa !59
  %38 = icmp eq i32 %37, 60
  br i1 %38, label %39, label %40

39:                                               ; preds = %36
  store i32 0, ptr %3, align 4
  store i32 1, ptr %22, align 4
  br label %139

40:                                               ; preds = %36
  br label %49

41:                                               ; preds = %31
  %42 = load i32, ptr %19, align 8, !tbaa !59
  %43 = icmp ne i32 %42, 88
  br i1 %43, label %44, label %48

44:                                               ; preds = %41
  %45 = load i32, ptr %19, align 8, !tbaa !59
  %46 = icmp ne i32 %45, 60
  br i1 %46, label %47, label %48

47:                                               ; preds = %44
  store i32 0, ptr %3, align 4
  store i32 1, ptr %22, align 4
  br label %139

48:                                               ; preds = %44, %41
  br label %49

49:                                               ; preds = %48, %40
  %50 = load ptr, ptr %4, align 8, !tbaa !45
  %51 = call i32 @onig_get_callout_num_by_callout_args(ptr noundef %50)
  store i32 %51, ptr %7, align 4, !tbaa !9
  %52 = load ptr, ptr %4, align 8, !tbaa !45
  %53 = call ptr @onig_get_start_by_callout_args(ptr noundef %52)
  store ptr %53, ptr %9, align 8, !tbaa !60
  %54 = load ptr, ptr %4, align 8, !tbaa !45
  %55 = call ptr @onig_get_right_range_by_callout_args(ptr noundef %54)
  store ptr %55, ptr %10, align 8, !tbaa !60
  %56 = load ptr, ptr %4, align 8, !tbaa !45
  %57 = call ptr @onig_get_current_by_callout_args(ptr noundef %56)
  store ptr %57, ptr %11, align 8, !tbaa !60
  %58 = load ptr, ptr %4, align 8, !tbaa !45
  %59 = call ptr @onig_get_string_by_callout_args(ptr noundef %58)
  store ptr %59, ptr %12, align 8, !tbaa !60
  %60 = load ptr, ptr %4, align 8, !tbaa !45
  %61 = call ptr @onig_get_string_end_by_callout_args(ptr noundef %60)
  store ptr %61, ptr %13, align 8, !tbaa !60
  %62 = load ptr, ptr %4, align 8, !tbaa !45
  %63 = call ptr @onig_get_regex_by_callout_args(ptr noundef %62)
  store ptr %63, ptr %16, align 8, !tbaa !57
  %64 = load ptr, ptr %16, align 8, !tbaa !57
  %65 = load i32, ptr %7, align 4, !tbaa !9
  %66 = call ptr @onig_get_callout_tag_start(ptr noundef %64, i32 noundef %65)
  store ptr %66, ptr %14, align 8, !tbaa !60
  %67 = load ptr, ptr %16, align 8, !tbaa !57
  %68 = load i32, ptr %7, align 4, !tbaa !9
  %69 = call ptr @onig_get_callout_tag_end(ptr noundef %67, i32 noundef %68)
  store ptr %69, ptr %15, align 8, !tbaa !60
  %70 = load ptr, ptr %14, align 8, !tbaa !60
  %71 = icmp eq ptr %70, null
  br i1 %71, label %72, label %76

72:                                               ; preds = %49
  %73 = getelementptr inbounds [20 x i8], ptr %20, i64 0, i64 0
  %74 = load i32, ptr %7, align 4, !tbaa !9
  %75 = call i32 (ptr, i64, ptr, ...) @snprintf(ptr noundef %73, i64 noundef 20, ptr noundef @.str.2, i32 noundef %74) #9
  br label %106

76:                                               ; preds = %49
  call void @llvm.lifetime.start.p0(i64 4, ptr %23) #9
  %77 = load ptr, ptr %15, align 8, !tbaa !60
  %78 = load ptr, ptr %14, align 8, !tbaa !60
  %79 = ptrtoint ptr %77 to i64
  %80 = ptrtoint ptr %78 to i64
  %81 = sub i64 %79, %80
  store i64 %81, ptr %8, align 8, !tbaa !14
  %82 = load i64, ptr %8, align 8, !tbaa !14
  %83 = icmp uge i64 %82, 20
  br i1 %83, label %84, label %85

84:                                               ; preds = %76
  store i64 19, ptr %8, align 8, !tbaa !14
  br label %85

85:                                               ; preds = %84, %76
  store i32 0, ptr %23, align 4, !tbaa !9
  br label %86

86:                                               ; preds = %100, %85
  %87 = load i32, ptr %23, align 4, !tbaa !9
  %88 = load i64, ptr %8, align 8, !tbaa !14
  %89 = trunc i64 %88 to i32
  %90 = icmp slt i32 %87, %89
  br i1 %90, label %91, label %103

91:                                               ; preds = %86
  %92 = load ptr, ptr %14, align 8, !tbaa !60
  %93 = load i32, ptr %23, align 4, !tbaa !9
  %94 = sext i32 %93 to i64
  %95 = getelementptr inbounds i8, ptr %92, i64 %94
  %96 = load i8, ptr %95, align 1, !tbaa !59
  %97 = load i32, ptr %23, align 4, !tbaa !9
  %98 = sext i32 %97 to i64
  %99 = getelementptr inbounds [20 x i8], ptr %20, i64 0, i64 %98
  store i8 %96, ptr %99, align 1, !tbaa !59
  br label %100

100:                                              ; preds = %91
  %101 = load i32, ptr %23, align 4, !tbaa !9
  %102 = add nsw i32 %101, 1
  store i32 %102, ptr %23, align 4, !tbaa !9
  br label %86, !llvm.loop !217

103:                                              ; preds = %86
  %104 = load i64, ptr %8, align 8, !tbaa !14
  %105 = getelementptr inbounds nuw [20 x i8], ptr %20, i64 0, i64 %104
  store i8 0, ptr %105, align 1, !tbaa !59
  call void @llvm.lifetime.end.p0(i64 4, ptr %23) #9
  br label %106

106:                                              ; preds = %103, %72
  %107 = load ptr, ptr %21, align 8, !tbaa !215
  %108 = getelementptr inbounds [20 x i8], ptr %20, i64 0, i64 0
  %109 = load i32, ptr %17, align 4, !tbaa !9
  %110 = icmp eq i32 %109, 1
  %111 = select i1 %110, ptr @.str.4, ptr @.str.5
  %112 = load ptr, ptr %11, align 8, !tbaa !60
  %113 = load ptr, ptr %12, align 8, !tbaa !60
  %114 = ptrtoint ptr %112 to i64
  %115 = ptrtoint ptr %113 to i64
  %116 = sub i64 %114, %115
  %117 = trunc i64 %116 to i32
  %118 = load ptr, ptr %9, align 8, !tbaa !60
  %119 = load ptr, ptr %12, align 8, !tbaa !60
  %120 = ptrtoint ptr %118 to i64
  %121 = ptrtoint ptr %119 to i64
  %122 = sub i64 %120, %121
  %123 = trunc i64 %122 to i32
  %124 = load ptr, ptr %10, align 8, !tbaa !60
  %125 = load ptr, ptr %12, align 8, !tbaa !60
  %126 = ptrtoint ptr %124 to i64
  %127 = ptrtoint ptr %125 to i64
  %128 = sub i64 %126, %127
  %129 = trunc i64 %128 to i32
  %130 = load ptr, ptr %13, align 8, !tbaa !60
  %131 = load ptr, ptr %12, align 8, !tbaa !60
  %132 = ptrtoint ptr %130 to i64
  %133 = ptrtoint ptr %131 to i64
  %134 = sub i64 %132, %133
  %135 = trunc i64 %134 to i32
  %136 = call i32 (ptr, ptr, ...) @fprintf(ptr noundef %107, ptr noundef @.str.3, ptr noundef %108, ptr noundef %111, i32 noundef %117, i32 noundef %123, i32 noundef %129, i32 noundef %135) #9
  %137 = load ptr, ptr %21, align 8, !tbaa !215
  %138 = call i32 @fflush(ptr noundef %137)
  store i32 0, ptr %3, align 4
  store i32 1, ptr %22, align 4
  br label %139

139:                                              ; preds = %106, %47, %39, %29
  call void @llvm.lifetime.end.p0(i64 8, ptr %21) #9
  call void @llvm.lifetime.end.p0(i64 20, ptr %20) #9
  call void @llvm.lifetime.end.p0(i64 16, ptr %19) #9
  call void @llvm.lifetime.end.p0(i64 4, ptr %18) #9
  call void @llvm.lifetime.end.p0(i64 4, ptr %17) #9
  call void @llvm.lifetime.end.p0(i64 8, ptr %16) #9
  call void @llvm.lifetime.end.p0(i64 8, ptr %15) #9
  call void @llvm.lifetime.end.p0(i64 8, ptr %14) #9
  call void @llvm.lifetime.end.p0(i64 8, ptr %13) #9
  call void @llvm.lifetime.end.p0(i64 8, ptr %12) #9
  call void @llvm.lifetime.end.p0(i64 8, ptr %11) #9
  call void @llvm.lifetime.end.p0(i64 8, ptr %10) #9
  call void @llvm.lifetime.end.p0(i64 8, ptr %9) #9
  call void @llvm.lifetime.end.p0(i64 8, ptr %8) #9
  call void @llvm.lifetime.end.p0(i64 4, ptr %7) #9
  call void @llvm.lifetime.end.p0(i64 4, ptr %6) #9
  %140 = load i32, ptr %3, align 4
  ret i32 %140
}